target datalayout = "e-m:e-p270:32:32-p271:32:32-p272:64:64-i64:64-i128:128-f80:128-n8:16:32:64-S128"
target triple = "x86_64-unknown-linux-gnu"

%struct.PCIDeviceClass = type { %struct.DeviceClass, ptr, ptr, ptr, ptr, i16, i16, i8, i16, i16, i16, ptr }
%struct.DeviceClass = type { %struct.ObjectClass, [1 x i64], ptr, ptr, ptr, i8, i8, ptr, ptr, ptr, ptr, ptr }
%struct.ObjectClass = type { ptr, ptr, [4 x ptr], [4 x ptr], ptr, ptr }
%struct.E1000BaseClass = type { %struct.PCIDeviceClass, i16 }
%struct.E1000State_st = type { %struct.PCIDevice, ptr, %struct.NICConf, %struct.MemoryRegion, %struct.MemoryRegion, [32768 x i32], [32 x i16], [64 x i16], i32, i32, %struct.e1000_tx, %struct.anon, ptr, ptr, i8, i8, i32, ptr, i32, i8, i8, %struct.e1000x_txd_props }
%struct.PCIDevice = type { %struct.DeviceState, i8, i8, ptr, ptr, ptr, ptr, ptr, i32, %struct.PCIReqIDCache, [64 x i8], [7 x %struct.PCIIORegion], %struct.AddressSpace, %struct.MemoryRegion, %struct.MemoryRegion, ptr, ptr, [3 x ptr], i8, i8, i32, i8, i32, ptr, ptr, ptr, ptr, ptr, ptr, %struct.MemoryRegion, %struct.MemoryRegion, %struct.MemoryRegion, ptr, i8, i32, i8, %struct.PCIExpressDevice, ptr, ptr, i32, i8, %struct.MemoryRegion, i32, ptr, ptr, ptr, ptr, ptr, i32 }
%struct.DeviceState = type { %struct.Object, ptr, ptr, i8, i8, i64, ptr, i32, i8, ptr, %struct.NamedGPIOListHead, %struct.NamedClockListHead, %struct.BusStateHead, i32, i32, i32, %struct.ResettableState, ptr, %struct.MemReentrancyGuard }
%struct.Object = type { ptr, ptr, ptr, i32, ptr }
%struct.NamedGPIOListHead = type { ptr }
%struct.NamedClockListHead = type { ptr }
%struct.BusStateHead = type { ptr }
%struct.ResettableState = type { i32, i8, i8 }
%struct.MemReentrancyGuard = type { i8 }
%struct.PCIReqIDCache = type { ptr, i32 }
%struct.PCIIORegion = type { i64, i64, i8, ptr, ptr }
%struct.AddressSpace = type { %struct.rcu_head, ptr, ptr, ptr, i32, i32, ptr, %union.anon, %union.anon.0 }
%struct.rcu_head = type { ptr, ptr }
%union.anon = type { %struct.QTailQLink }
%struct.QTailQLink = type { ptr, ptr }
%union.anon.0 = type { %struct.QTailQLink }
%struct.PCIExpressDevice = type { i8, i8, i8, i16, %struct.PCIEAERLog, i16, i16, i16, %struct.PCIESriovPF, %struct.PCIESriovVF }
%struct.PCIEAERLog = type { i16, i16, ptr }
%struct.PCIESriovPF = type { i16, [7 x i8], ptr, ptr }
%struct.PCIESriovVF = type { ptr, i16 }
%struct.NICConf = type { %struct.MACAddr, %struct.NICPeers, i32 }
%struct.MACAddr = type { [6 x i8] }
%struct.NICPeers = type { [1024 x ptr], i32 }
%struct.MemoryRegion = type { %struct.Object, i8, i8, i8, i8, i8, i8, i8, i8, i8, i8, ptr, ptr, ptr, ptr, ptr, ptr, i32, i128, i64, ptr, i64, i8, i8, i8, i8, i8, ptr, i64, i32, %union.anon.1, %union.anon.2, %union.anon.3, ptr, i32, ptr, ptr, i8 }
%union.anon.1 = type { %struct.QTailQLink }
%union.anon.2 = type { %struct.QTailQLink }
%union.anon.3 = type { %struct.QTailQLink }
%struct.e1000_tx = type { [256 x i8], [4 x i8], [4 x i8], [65536 x i8], i16, i8, i8, i8, %struct.e1000x_txd_props, %struct.e1000x_txd_props, i16, i8 }
%struct.anon = type { i32, i16, i16, i16, i32 }
%struct.e1000x_txd_props = type { i8, i8, i16, i8, i8, i16, i32, i8, i16, i8, i8, i8 }
%struct.NetClientState = type { ptr, i32, %union.anon.17, ptr, ptr, ptr, ptr, [256 x i8], i8, ptr, i32, i8, i32, i32, i8, i8, i8, %union.anon.18 }
%union.anon.17 = type { %struct.QTailQLink }
%union.anon.18 = type { %struct.QTailQLink }

@.str = private unnamed_addr constant [11 x i8] c"e1000-base\00", align 1
@.str.5 = private unnamed_addr constant [23 x i8] c"../qemu/hw/net/e1000.c\00", align 1
@__func__.E1000 = private unnamed_addr constant [6 x i8] c"E1000\00", align 1
@phy_reg_init = internal constant [21 x i16] [i16 4416, i16 31053, i16 321, i16 0, i16 3553, i16 480, i16 0, i16 0, i16 0, i16 3584, i16 15360, i16 0, i16 0, i16 0, i16 0, i16 0, i16 864, i16 -21504, i16 0, i16 0, i16 3424], align 16
@__func__.E1000_GET_CLASS = private unnamed_addr constant [16 x i8] c"E1000_GET_CLASS\00", align 1

; Function Attrs: nounwind sspstrong uwtable
define internal zeroext i1 @e1000_vet_init_need(ptr noundef %opaque) #0 {
entry:
  %opaque.addr = alloca ptr, align 8
  %s = alloca ptr, align 8
  store ptr %opaque, ptr %opaque.addr, align 8
  %0 = load ptr, ptr %opaque.addr, align 8
  store ptr %0, ptr %s, align 8
  %1 = load ptr, ptr %s, align 8
  %compat_flags = getelementptr inbounds %struct.E1000State_st, ptr %1, i32 0, i32 18
  %2 = load i32, ptr %compat_flags, align 8
  %and = and i32 %2, 16
  %tobool = icmp ne i32 %and, 0
  ret i1 %tobool
}

; Function Attrs: nounwind sspstrong uwtable
define internal void @e1000x_update_regs_on_link_down(ptr noundef %mac, ptr noundef %phy) #0 {
entry:
  %mac.addr = alloca ptr, align 8
  %phy.addr = alloca ptr, align 8
  store ptr %mac, ptr %mac.addr, align 8
  store ptr %phy, ptr %phy.addr, align 8
  %0 = load ptr, ptr %mac.addr, align 8
  %arrayidx = getelementptr i32, ptr %0, i64 2
  %1 = load i32, ptr %arrayidx, align 4
  %and = and i32 %1, -3
  store i32 %and, ptr %arrayidx, align 4
  %2 = load ptr, ptr %phy.addr, align 8
  %arrayidx1 = getelementptr i16, ptr %2, i64 1
  %3 = load i16, ptr %arrayidx1, align 2
  %conv = zext i16 %3 to i32
  %and2 = and i32 %conv, -5
  %conv3 = trunc i32 %and2 to i16
  store i16 %conv3, ptr %arrayidx1, align 2
  %4 = load ptr, ptr %phy.addr, align 8
  %arrayidx4 = getelementptr i16, ptr %4, i64 1
  %5 = load i16, ptr %arrayidx4, align 2
  %conv5 = zext i16 %5 to i32
  %and6 = and i32 %conv5, -33
  %conv7 = trunc i32 %and6 to i16
  store i16 %conv7, ptr %arrayidx4, align 2
  %6 = load ptr, ptr %phy.addr, align 8
  %arrayidx8 = getelementptr i16, ptr %6, i64 5
  %7 = load i16, ptr %arrayidx8, align 2
  %conv9 = zext i16 %7 to i32
  %and10 = and i32 %conv9, -16385
  %conv11 = trunc i32 %and10 to i16
  store i16 %conv11, ptr %arrayidx8, align 2
  ret void
}

; Function Attrs: nounwind sspstrong uwtable
define internal ptr @E1000_GET_CLASS(ptr noundef %obj) #0 {
entry:
  %obj.addr = alloca ptr, align 8
  store ptr %obj, ptr %obj.addr, align 8
  %0 = load ptr, ptr %obj.addr, align 8
  %call = call ptr @object_get_class(ptr noundef %0)
  %call1 = call ptr @object_class_dynamic_cast_assert(ptr noundef %call, ptr noundef @.str, ptr noundef @.str.5, i32 noundef 155, ptr noundef @__func__.E1000_GET_CLASS)
  ret ptr %call1
}

; Function Attrs: nounwind sspstrong uwtable
define internal ptr @E1000(ptr noundef %obj) #0 {
entry:
  %obj.addr = alloca ptr, align 8
  store ptr %obj, ptr %obj.addr, align 8
  %0 = load ptr, ptr %obj.addr, align 8
  %call = call ptr @object_dynamic_cast_assert(ptr noundef %0, ptr noundef @.str, ptr noundef @.str.5, i32 noundef 155, ptr noundef @__func__.E1000)
  ret ptr %call
}

; Function Attrs: nounwind sspstrong uwtable
define internal void @e1000_reset_hold(ptr noundef %obj) #0 {
entry:
  %obj.addr = alloca ptr, align 8
  %d = alloca ptr, align 8
  %edc = alloca ptr, align 8
  %macaddr = alloca ptr, align 8
  store ptr %obj, ptr %obj.addr, align 8
  %0 = load ptr, ptr %obj.addr, align 8
  %call = call ptr @E1000(ptr noundef %0)
  store ptr %call, ptr %d, align 8
  %1 = load ptr, ptr %d, align 8
  %call1 = call ptr @E1000_GET_CLASS(ptr noundef %1)
  store ptr %call1, ptr %edc, align 8
  %2 = load ptr, ptr %d, align 8
  %conf = getelementptr inbounds %struct.E1000State_st, ptr %2, i32 0, i32 2
  %macaddr2 = getelementptr inbounds %struct.NICConf, ptr %conf, i32 0, i32 0
  %a = getelementptr inbounds %struct.MACAddr, ptr %macaddr2, i32 0, i32 0
  %arraydecay = getelementptr inbounds [6 x i8], ptr %a, i64 0, i64 0
  store ptr %arraydecay, ptr %macaddr, align 8
  %3 = load ptr, ptr %d, align 8
  %autoneg_timer = getelementptr inbounds %struct.E1000State_st, ptr %3, i32 0, i32 12
  %4 = load ptr, ptr %autoneg_timer, align 8
  call void @timer_del(ptr noundef %4)
  %5 = load ptr, ptr %d, align 8
  %mit_timer = getelementptr inbounds %struct.E1000State_st, ptr %5, i32 0, i32 13
  %6 = load ptr, ptr %mit_timer, align 16
  call void @timer_del(ptr noundef %6)
  %7 = load ptr, ptr %d, align 8
  %flush_queue_timer = getelementptr inbounds %struct.E1000State_st, ptr %7, i32 0, i32 17
  %8 = load ptr, ptr %flush_queue_timer, align 16
  call void @timer_del(ptr noundef %8)
  %9 = load ptr, ptr %d, align 8
  %mit_timer_on = getelementptr inbounds %struct.E1000State_st, ptr %9, i32 0, i32 14
  store i8 0, ptr %mit_timer_on, align 8
  %10 = load ptr, ptr %d, align 8
  %mit_irq_level = getelementptr inbounds %struct.E1000State_st, ptr %10, i32 0, i32 15
  store i8 0, ptr %mit_irq_level, align 1
  %11 = load ptr, ptr %d, align 8
  %mit_ide = getelementptr inbounds %struct.E1000State_st, ptr %11, i32 0, i32 16
  store i32 0, ptr %mit_ide, align 4
  %12 = load ptr, ptr %d, align 8
  %phy_reg = getelementptr inbounds %struct.E1000State_st, ptr %12, i32 0, i32 6
  %arraydecay3 = getelementptr inbounds [32 x i16], ptr %phy_reg, i64 0, i64 0
  call void @llvm.memset.p0.i64(ptr align 16 %arraydecay3, i8 0, i64 64, i1 false)
  %13 = load ptr, ptr %d, align 8
  %phy_reg4 = getelementptr inbounds %struct.E1000State_st, ptr %13, i32 0, i32 6
  %arraydecay5 = getelementptr inbounds [32 x i16], ptr %phy_reg4, i64 0, i64 0
  call void @llvm.memcpy.p0.p0.i64(ptr align 16 %arraydecay5, ptr align 16 @phy_reg_init, i64 42, i1 false)
  %14 = load ptr, ptr %edc, align 8
  %phy_id2 = getelementptr inbounds %struct.E1000BaseClass, ptr %14, i32 0, i32 1
  %15 = load i16, ptr %phy_id2, align 8
  %16 = load ptr, ptr %d, align 8
  %phy_reg6 = getelementptr inbounds %struct.E1000State_st, ptr %16, i32 0, i32 6
  %arrayidx = getelementptr [32 x i16], ptr %phy_reg6, i64 0, i64 3
  store i16 %15, ptr %arrayidx, align 2
  %17 = load ptr, ptr %d, align 8
  %mac_reg = getelementptr inbounds %struct.E1000State_st, ptr %17, i32 0, i32 5
  %arraydecay7 = getelementptr inbounds [32768 x i32], ptr %mac_reg, i64 0, i64 0
  call void @llvm.memset.p0.i64(ptr align 16 %arraydecay7, i8 0, i64 131072, i1 false)
  %18 = load ptr, ptr %d, align 8
  %mac_reg8 = getelementptr inbounds %struct.E1000State_st, ptr %18, i32 0, i32 5
  %arraydecay9 = getelementptr inbounds [32768 x i32], ptr %mac_reg8, i64 0, i64 0
  call void @llvm.memcpy.p0.p0.i64(ptr align 16 %arraydecay9, ptr align 16 @mac_reg_init, i64 22564, i1 false)
  %19 = load ptr, ptr %d, align 8
  %rxbuf_min_shift = getelementptr inbounds %struct.E1000State_st, ptr %19, i32 0, i32 9
  store i32 1, ptr %rxbuf_min_shift, align 4
  %20 = load ptr, ptr %d, align 8
  %tx = getelementptr inbounds %struct.E1000State_st, ptr %20, i32 0, i32 10
  call void @llvm.memset.p0.i64(ptr align 8 %tx, i8 0, i64 65852, i1 false)
  %21 = load ptr, ptr %d, align 8
  %nic = getelementptr inbounds %struct.E1000State_st, ptr %21, i32 0, i32 1
  %22 = load ptr, ptr %nic, align 16
  %call10 = call ptr @qemu_get_queue(ptr noundef %22)
  %link_down = getelementptr inbounds %struct.NetClientState, ptr %call10, i32 0, i32 1
  %23 = load i32, ptr %link_down, align 8
  %tobool = icmp ne i32 %23, 0
  br i1 %tobool, label %if.then, label %if.end

if.then:                                          ; preds = %entry
  %24 = load ptr, ptr %d, align 8
  %mac_reg11 = getelementptr inbounds %struct.E1000State_st, ptr %24, i32 0, i32 5
  %arraydecay12 = getelementptr inbounds [32768 x i32], ptr %mac_reg11, i64 0, i64 0
  %25 = load ptr, ptr %d, align 8
  %phy_reg13 = getelementptr inbounds %struct.E1000State_st, ptr %25, i32 0, i32 6
  %arraydecay14 = getelementptr inbounds [32 x i16], ptr %phy_reg13, i64 0, i64 0
  call void @e1000x_update_regs_on_link_down(ptr noundef %arraydecay12, ptr noundef %arraydecay14)
  br label %if.end

if.end:                                           ; preds = %if.then, %entry
  %26 = load ptr, ptr %d, align 8
  %nic15 = getelementptr inbounds %struct.E1000State_st, ptr %26, i32 0, i32 1
  %27 = load ptr, ptr %nic15, align 16
  %28 = load ptr, ptr %d, align 8
  %mac_reg16 = getelementptr inbounds %struct.E1000State_st, ptr %28, i32 0, i32 5
  %arraydecay17 = getelementptr inbounds [32768 x i32], ptr %mac_reg16, i64 0, i64 0
  %29 = load ptr, ptr %macaddr, align 8
  call void @e1000x_reset_mac_addr(ptr noundef %27, ptr noundef %arraydecay17, ptr noundef %29)
  %30 = load ptr, ptr %d, align 8
  %call18 = call zeroext i1 @e1000_vet_init_need(ptr noundef %30)
  br i1 %call18, label %if.then19, label %if.end22

if.then19:                                        ; preds = %if.end
  %31 = load ptr, ptr %d, align 8
  %mac_reg20 = getelementptr inbounds %struct.E1000State_st, ptr %31, i32 0, i32 5
  %arrayidx21 = getelementptr [32768 x i32], ptr %mac_reg20, i64 0, i64 14
  store i32 33024, ptr %arrayidx21, align 8
  br label %if.end22

if.end22:                                         ; preds = %if.then19, %if.end
  ret void
}