; Function Attrs: nounwind sspstrong uwtable
define internal void @e1000_reset_hold(ptr noundef %obj) #0 {
entry:
  %call.i = tail call ptr @object_dynamic_cast_assert(ptr noundef %obj, ptr noundef nonnull @.str, ptr noundef nonnull @.str.5, i32 noundef 155, ptr noundef nonnull @__func__.E1000) #13
  %call.i22 = tail call ptr @object_get_class(ptr noundef %call.i) #13
  %call1.i = tail call ptr @object_class_dynamic_cast_assert(ptr noundef %call.i22, ptr noundef nonnull @.str, ptr noundef nonnull @.str.5, i32 noundef 155, ptr noundef nonnull @__func__.E1000_GET_CLASS) #13
  %conf = getelementptr inbounds nuw i8, ptr %call.i, i64 2616
  %autoneg_timer = getelementptr inbounds nuw i8, ptr %call.i, i64 208520
  %0 = load ptr, ptr %autoneg_timer, align 8
  tail call void @timer_del(ptr noundef %0) #13
  %mit_timer = getelementptr inbounds nuw i8, ptr %call.i, i64 208528
  %1 = load ptr, ptr %mit_timer, align 16
  tail call void @timer_del(ptr noundef %1) #13
  %flush_queue_timer = getelementptr inbounds nuw i8, ptr %call.i, i64 208544
  %2 = load ptr, ptr %flush_queue_timer, align 16
  tail call void @timer_del(ptr noundef %2) #13
  %mit_timer_on = getelementptr inbounds nuw i8, ptr %call.i, i64 208536
  store i8 0, ptr %mit_timer_on, align 8
  %mit_irq_level = getelementptr inbounds nuw i8, ptr %call.i, i64 208537
  store i8 0, ptr %mit_irq_level, align 1
  %mit_ide = getelementptr inbounds nuw i8, ptr %call.i, i64 208540
  store i32 0, ptr %mit_ide, align 4
  %phy_reg = getelementptr inbounds nuw i8, ptr %call.i, i64 142448
  %3 = getelementptr i8, ptr %call.i, i64 142490
  tail call void @llvm.memset.p0.i64(ptr noundef nonnull align 2 dereferenceable(22) %3, i8 0, i64 22, i1 false)
  tail call void @llvm.memcpy.p0.p0.i64(ptr noundef nonnull align 16 dereferenceable(42) %phy_reg, ptr noundef nonnull align 16 dereferenceable(42) @phy_reg_init, i64 42, i1 false)
  %phy_id2 = getelementptr inbounds nuw i8, ptr %call1.i, i64 232
  %4 = load i16, ptr %phy_id2, align 8
  %arrayidx = getelementptr i8, ptr %call.i, i64 142454
  store i16 %4, ptr %arrayidx, align 2
  %mac_reg = getelementptr inbounds nuw i8, ptr %call.i, i64 11376
  %5 = getelementptr i8, ptr %call.i, i64 33940
  tail call void @llvm.memset.p0.i64(ptr noundef nonnull align 4 dereferenceable(108508) %5, i8 0, i64 108508, i1 false)
  tail call void @llvm.memcpy.p0.p0.i64(ptr noundef nonnull align 16 dereferenceable(22564) %mac_reg, ptr noundef nonnull align 16 dereferenceable(22564) @mac_reg_init, i64 22564, i1 false)
  %rxbuf_min_shift = getelementptr inbounds nuw i8, ptr %call.i, i64 142644
  store i32 1, ptr %rxbuf_min_shift, align 4
  %tx = getelementptr inbounds nuw i8, ptr %call.i, i64 142648
  tail call void @llvm.memset.p0.i64(ptr noundef nonnull align 8 dereferenceable(65852) %tx, i8 0, i64 65852, i1 false)
  %nic = getelementptr inbounds nuw i8, ptr %call.i, i64 2608
  %6 = load ptr, ptr %nic, align 16
  %call10 = tail call ptr @qemu_get_queue(ptr noundef %6) #13
  %link_down = getelementptr inbounds nuw i8, ptr %call10, i64 8
  %7 = load i32, ptr %link_down, align 8
  %tobool.not = icmp eq i32 %7, 0
  br i1 %tobool.not, label %if.end, label %if.then

if.then:                                          ; preds = %entry
  %arrayidx.i = getelementptr i8, ptr %call.i, i64 11384
  %8 = load i32, ptr %arrayidx.i, align 4
  %and.i = and i32 %8, -3
  store i32 %and.i, ptr %arrayidx.i, align 4
  %arrayidx1.i = getelementptr i8, ptr %call.i, i64 142450
  %9 = load i16, ptr %arrayidx1.i, align 2
  %10 = and i16 %9, -37
  store i16 %10, ptr %arrayidx1.i, align 2
  %arrayidx8.i = getelementptr i8, ptr %call.i, i64 142458
  %11 = load i16, ptr %arrayidx8.i, align 2
  %12 = and i16 %11, -16385
  store i16 %12, ptr %arrayidx8.i, align 2
  br label %if.end

if.end:                                           ; preds = %if.then, %entry
  %13 = load ptr, ptr %nic, align 16
  tail call void @e1000x_reset_mac_addr(ptr noundef %13, ptr noundef nonnull %mac_reg, ptr noundef nonnull %conf) #13
  %14 = getelementptr i8, ptr %call.i, i64 208552
  %call.val = load i32, ptr %14, align 8
  %and.i23 = and i32 %call.val, 16
  %tobool.i.not = icmp eq i32 %and.i23, 0
  br i1 %tobool.i.not, label %if.end22, label %if.then19

if.then19:                                        ; preds = %if.end
  %arrayidx21 = getelementptr i8, ptr %call.i, i64 11432
  store i32 33024, ptr %arrayidx21, align 8
  br label %if.end22

if.end22:                                         ; preds = %if.then19, %if.end
  ret void
}